target datalayout = "e-m:e-p270:32:32-p271:32:32-p272:64:64-i64:64-i128:128-f80:128-n8:16:32:64-S128"
target triple = "x86_64-pc-linux-gnu"

%struct._zval_struct = type { %union._zend_value, %union.anon, %union.anon.2 }
%union._zend_value = type { i64 }
%union.anon = type { i32 }
%union.anon.2 = type { i32 }
%struct._zend_refcounted_h = type { i32, %union.anon.3 }
%union.anon.3 = type { i32 }
%struct._zend_string = type { %struct._zend_refcounted_h, i64, i64, [1 x i8] }

; Function Attrs: nounwind uwtable
define dso_local i32 @zend_binary_strncmp(ptr noundef %0, i64 noundef %1, ptr noundef %2, i64 noundef %3, i64 noundef %4) #0 {
  %6 = alloca i32, align 4
  %7 = alloca ptr, align 8
  %8 = alloca i64, align 8
  %9 = alloca ptr, align 8
  %10 = alloca i64, align 8
  %11 = alloca i64, align 8
  %12 = alloca i32, align 4
  %13 = alloca i32, align 4
  store ptr %0, ptr %7, align 8, !tbaa !4
  store i64 %1, ptr %8, align 8, !tbaa !9
  store ptr %2, ptr %9, align 8, !tbaa !4
  store i64 %3, ptr %10, align 8, !tbaa !9
  store i64 %4, ptr %11, align 8, !tbaa !9
  call void @llvm.lifetime.start.p0(i64 4, ptr %12) #20
  %14 = load ptr, ptr %7, align 8, !tbaa !4
  %15 = load ptr, ptr %9, align 8, !tbaa !4
  %16 = icmp eq ptr %14, %15
  br i1 %16, label %17, label %18

17:                                               ; preds = %5
  store i32 0, ptr %6, align 4
  store i32 1, ptr %13, align 4
  br label %95

18:                                               ; preds = %5
  %19 = load ptr, ptr %7, align 8, !tbaa !4
  %20 = load ptr, ptr %9, align 8, !tbaa !4
  %21 = load i64, ptr %11, align 8, !tbaa !9
  %22 = load i64, ptr %8, align 8, !tbaa !9
  %23 = load i64, ptr %10, align 8, !tbaa !9
  %24 = icmp ult i64 %22, %23
  br i1 %24, label %25, label %27

25:                                               ; preds = %18
  %26 = load i64, ptr %8, align 8, !tbaa !9
  br label %29

27:                                               ; preds = %18
  %28 = load i64, ptr %10, align 8, !tbaa !9
  br label %29

29:                                               ; preds = %27, %25
  %30 = phi i64 [ %26, %25 ], [ %28, %27 ]
  %31 = icmp ult i64 %21, %30
  br i1 %31, label %32, label %34

32:                                               ; preds = %29
  %33 = load i64, ptr %11, align 8, !tbaa !9
  br label %44

34:                                               ; preds = %29
  %35 = load i64, ptr %8, align 8, !tbaa !9
  %36 = load i64, ptr %10, align 8, !tbaa !9
  %37 = icmp ult i64 %35, %36
  br i1 %37, label %38, label %40

38:                                               ; preds = %34
  %39 = load i64, ptr %8, align 8, !tbaa !9
  br label %42

40:                                               ; preds = %34
  %41 = load i64, ptr %10, align 8, !tbaa !9
  br label %42

42:                                               ; preds = %40, %38
  %43 = phi i64 [ %39, %38 ], [ %41, %40 ]
  br label %44

44:                                               ; preds = %42, %32
  %45 = phi i64 [ %33, %32 ], [ %43, %42 ]
  %46 = call i32 @memcmp(ptr noundef %19, ptr noundef %20, i64 noundef %45) #19
  store i32 %46, ptr %12, align 4, !tbaa !44
  %47 = load i32, ptr %12, align 4, !tbaa !44
  %48 = icmp ne i32 %47, 0
  br i1 %48, label %93, label %49

49:                                               ; preds = %44
  %50 = load i64, ptr %11, align 8, !tbaa !9
  %51 = load i64, ptr %8, align 8, !tbaa !9
  %52 = icmp ult i64 %50, %51
  br i1 %52, label %53, label %55

53:                                               ; preds = %49
  %54 = load i64, ptr %11, align 8, !tbaa !9
  br label %57

55:                                               ; preds = %49
  %56 = load i64, ptr %8, align 8, !tbaa !9
  br label %57

57:                                               ; preds = %55, %53
  %58 = phi i64 [ %54, %53 ], [ %56, %55 ]
  %59 = load i64, ptr %11, align 8, !tbaa !9
  %60 = load i64, ptr %10, align 8, !tbaa !9
  %61 = icmp ult i64 %59, %60
  br i1 %61, label %62, label %64

62:                                               ; preds = %57
  %63 = load i64, ptr %11, align 8, !tbaa !9
  br label %66

64:                                               ; preds = %57
  %65 = load i64, ptr %10, align 8, !tbaa !9
  br label %66

66:                                               ; preds = %64, %62
  %67 = phi i64 [ %63, %62 ], [ %65, %64 ]
  %68 = icmp eq i64 %58, %67
  br i1 %68, label %69, label %70

69:                                               ; preds = %66
  br label %91

70:                                               ; preds = %66
  %71 = load i64, ptr %11, align 8, !tbaa !9
  %72 = load i64, ptr %8, align 8, !tbaa !9
  %73 = icmp ult i64 %71, %72
  br i1 %73, label %74, label %76

74:                                               ; preds = %70
  %75 = load i64, ptr %11, align 8, !tbaa !9
  br label %78

76:                                               ; preds = %70
  %77 = load i64, ptr %8, align 8, !tbaa !9
  br label %78

78:                                               ; preds = %76, %74
  %79 = phi i64 [ %75, %74 ], [ %77, %76 ]
  %80 = load i64, ptr %11, align 8, !tbaa !9
  %81 = load i64, ptr %10, align 8, !tbaa !9
  %82 = icmp ult i64 %80, %81
  br i1 %82, label %83, label %85

83:                                               ; preds = %78
  %84 = load i64, ptr %11, align 8, !tbaa !9
  br label %87

85:                                               ; preds = %78
  %86 = load i64, ptr %10, align 8, !tbaa !9
  br label %87

87:                                               ; preds = %85, %83
  %88 = phi i64 [ %84, %83 ], [ %86, %85 ]
  %89 = icmp ult i64 %79, %88
  %90 = select i1 %89, i32 -1, i32 1
  br label %91

91:                                               ; preds = %87, %69
  %92 = phi i32 [ 0, %69 ], [ %90, %87 ]
  store i32 %92, ptr %6, align 4
  store i32 1, ptr %13, align 4
  br label %95

93:                                               ; preds = %44
  %94 = load i32, ptr %12, align 4, !tbaa !44
  store i32 %94, ptr %6, align 4
  store i32 1, ptr %13, align 4
  br label %95

95:                                               ; preds = %93, %91, %17
  call void @llvm.lifetime.end.p0(i64 4, ptr %12) #20
  %96 = load i32, ptr %6, align 4
  ret i32 %96
}

; Function Attrs: nounwind uwtable
define dso_local i32 @zend_binary_zval_strncmp(ptr noundef %0, ptr noundef %1, ptr noundef %2) #0 {
  %4 = alloca ptr, align 8
  %5 = alloca ptr, align 8
  %6 = alloca ptr, align 8
  store ptr %0, ptr %4, align 8, !tbaa !12
  store ptr %1, ptr %5, align 8, !tbaa !12
  store ptr %2, ptr %6, align 8, !tbaa !12
  %7 = load ptr, ptr %4, align 8, !tbaa !12
  %8 = getelementptr inbounds nuw %struct._zval_struct, ptr %7, i32 0, i32 0
  %9 = load ptr, ptr %8, align 8, !tbaa !11
  %10 = getelementptr inbounds nuw %struct._zend_string, ptr %9, i32 0, i32 3
  %11 = getelementptr inbounds [1 x i8], ptr %10, i64 0, i64 0
  %12 = load ptr, ptr %4, align 8, !tbaa !12
  %13 = getelementptr inbounds nuw %struct._zval_struct, ptr %12, i32 0, i32 0
  %14 = load ptr, ptr %13, align 8, !tbaa !11
  %15 = getelementptr inbounds nuw %struct._zend_string, ptr %14, i32 0, i32 2
  %16 = load i64, ptr %15, align 8, !tbaa !16
  %17 = load ptr, ptr %5, align 8, !tbaa !12
  %18 = getelementptr inbounds nuw %struct._zval_struct, ptr %17, i32 0, i32 0
  %19 = load ptr, ptr %18, align 8, !tbaa !11
  %20 = getelementptr inbounds nuw %struct._zend_string, ptr %19, i32 0, i32 3
  %21 = getelementptr inbounds [1 x i8], ptr %20, i64 0, i64 0
  %22 = load ptr, ptr %5, align 8, !tbaa !12
  %23 = getelementptr inbounds nuw %struct._zval_struct, ptr %22, i32 0, i32 0
  %24 = load ptr, ptr %23, align 8, !tbaa !11
  %25 = getelementptr inbounds nuw %struct._zend_string, ptr %24, i32 0, i32 2
  %26 = load i64, ptr %25, align 8, !tbaa !16
  %27 = load ptr, ptr %6, align 8, !tbaa !12
  %28 = getelementptr inbounds nuw %struct._zval_struct, ptr %27, i32 0, i32 0
  %29 = load i64, ptr %28, align 8, !tbaa !11
  %30 = call i32 @zend_binary_strncmp(ptr noundef %11, i64 noundef %16, ptr noundef %21, i64 noundef %26, i64 noundef %29)
  ret i32 %30
}