; Function Attrs: mustprogress nofree nounwind willreturn memory(read, inaccessiblemem: none) uwtable
define dso_local i32 @zend_binary_zval_strncmp(ptr noundef readonly captures(none) %0, ptr noundef readonly captures(none) %1, ptr noundef readonly captures(none) %2) local_unnamed_addr #19 {
  %4 = load ptr, ptr %0, align 8, !tbaa !4
  %5 = getelementptr inbounds nuw i8, ptr %4, i64 16
  %6 = load i64, ptr %5, align 8, !tbaa !10
  %7 = load ptr, ptr %1, align 8, !tbaa !4
  %8 = getelementptr inbounds nuw i8, ptr %7, i64 16
  %9 = load i64, ptr %8, align 8, !tbaa !10
  %10 = load i64, ptr %2, align 8, !tbaa !4
  %11 = icmp eq ptr %4, %7
  br i1 %11, label %zend_binary_strncmp.exit, label %12

12:                                               ; preds = %3
  %13 = getelementptr inbounds nuw i8, ptr %7, i64 24
  %14 = getelementptr inbounds nuw i8, ptr %4, i64 24
  %15 = tail call i64 @llvm.umin.i64(i64 %6, i64 %9)
  %..i = tail call i64 @llvm.umin.i64(i64 %10, i64 %15)
  %16 = tail call i32 @memcmp(ptr noundef nonnull readonly %14, ptr noundef nonnull readonly %13, i64 noundef %..i) #29
  %.not.i = icmp eq i32 %16, 0
  br i1 %.not.i, label %17, label %zend_binary_strncmp.exit

17:                                               ; preds = %12
  %18 = tail call i64 @llvm.umin.i64(i64 %10, i64 %6)
  %19 = tail call i64 @llvm.umin.i64(i64 %10, i64 %9)
  %20 = icmp eq i64 %18, %19
  %21 = icmp ult i64 %6, %19
  %22 = select i1 %21, i32 -1, i32 1
  %23 = select i1 %20, i32 0, i32 %22
  br label %zend_binary_strncmp.exit

zend_binary_strncmp.exit:                         ; preds = %3, %12, %17
  %.0.i = phi i32 [ %23, %17 ], [ 0, %3 ], [ %16, %12 ]
  ret i32 %.0.i
}